(dp0
S'HRI'
p1
(dp2
S'PositionX'
p3
S'9'
p4
sS'PositionY'
p5
S'99'
p6
sS'DataContent'
p7
S''
p8
sS'Orientation'
p9
S'Landscape'
p10
sS'Default'
p11
g8
sS'ObjectType'
p12
g8
sS'FontName'
p13
S'Arial'
p14
sS'Height'
p15
S'88'
p16
sS'Width'
p17
S'67'
p18
sS'Relation'
p19
S'PageOrientationsPropTable,BarcodesContentPropTable,PageSidesPropTable,BarcodesTypesPropTable,BarcodeOccurencesTypesPropTable'
p20
sS'Key'
p21
g1
sS'Action'
p22
S'REMOVE'
p23
sS'FontSize'
p24
S'5'
p25
sS'Description'
p26
g8
sS'Type'
p27
S'HRI'
p28
sS'Side'
p29
S'Verso'
p30
sS'OCCURRENCE'
p31
S'AllPPage'
p32
ssS'2D_BARCODE1'
p33
(dp34
g3
S'6'
p35
sg5
g35
sg7
S'2D_DATA'
p36
sg9
S'Portrait'
p37
sg11
S'Y'
p38
sg12
g8
sg13
g8
sg15
g25
sg17
S'3'
p39
sg19
S'PageOrientationsPropTable,BarcodesContentPropTable,PageSidesPropTable,DocumentPagesObjectsTypesPropTable,DocumentPagesObjectsOccurencesTypesPropTable'
p40
sg21
g33
sg22
S'ADD'
p41
sg24
g8
sg26
g8
sg27
S'2D'
p42
sg29
S'Recto'
p43
sg31
S'FirstPPage'
p44
ssS'expression'
p45
(dp46
g3
S'expression'
p47
sg5
S'expression'
p48
sg7
S'expression'
p49
sg9
S'expression'
p50
sg11
S'expression'
p51
sg12
S'expression'
p52
sg13
S'expression'
p53
sg15
S'expression'
p54
sg17
S'expression'
p55
sg19
S'expression'
p56
sg21
g45
sg22
S'expression'
p57
sg24
S'expression'
p58
sg26
S'expression'
p59
sg27
S'expression'
p60
sg29
S'expression'
p61
sg31
S'expression'
p62
ssS'Postnet_1'
p63
(dp64
g3
g8
sg5
g8
sg7
g8
sg9
g8
sg11
g8
sg12
S'Image'
p65
sg13
g8
sg15
g8
sg17
g8
sg19
g8
sg21
g63
sg22
S'ADD'
p66
sg24
g8
sg26
g8
sg27
g8
sg29
g8
sg31
g8
ssS'HRI_DETECT'
p67
(dp68
g3
g35
sg5
g35
sg7
g8
sg9
S'Portrait'
p69
sg11
g8
sg12
S'Text'
p70
sg13
S'Arial'
p71
sg15
g35
sg17
g35
sg19
g8
sg21
g67
sg22
S'DETECT'
p72
sg24
g25
sg26
g8
sg27
S'HRI'
p73
sg29
S'Recto'
p74
sg31
S'AllPPage'
p75
ss.